target datalayout = "e-m:e-p270:32:32-p271:32:32-p272:64:64-i64:64-i128:128-f80:128-n8:16:32:64-S128"
target triple = "x86_64-pc-linux-gnu"

%struct.hwloc_tma = type { ptr, ptr, i32 }

; Function Attrs: nounwind uwtable
define internal ptr @tma_get_length_malloc(ptr noundef %0, i64 noundef %1) #0 {
  %3 = alloca ptr, align 8
  %4 = alloca i64, align 8
  %5 = alloca ptr, align 8
  store ptr %0, ptr %3, align 8, !tbaa !18
  store i64 %1, ptr %4, align 8, !tbaa !10
  call void @llvm.lifetime.start.p0(i64 8, ptr %5) #7
  %6 = load ptr, ptr %3, align 8, !tbaa !18
  %7 = getelementptr inbounds nuw %struct.hwloc_tma, ptr %6, i32 0, i32 1
  %8 = load ptr, ptr %7, align 8, !tbaa !17
  store ptr %8, ptr %5, align 8, !tbaa !8
  %9 = load i64, ptr %4, align 8, !tbaa !10
  %10 = add i64 %9, 8
  %11 = sub i64 %10, 1
  %12 = and i64 %11, -8
  %13 = load ptr, ptr %5, align 8, !tbaa !8
  %14 = load i64, ptr %13, align 8, !tbaa !10
  %15 = add i64 %14, %12
  store i64 %15, ptr %13, align 8, !tbaa !10
  %16 = load i64, ptr %4, align 8, !tbaa !10
  %17 = call noalias ptr @malloc(i64 noundef %16) #9
  call void @llvm.lifetime.end.p0(i64 8, ptr %5) #7
  ret ptr %17
}