; Function Attrs: mustprogress nofree nounwind willreturn uwtable
define internal noalias noundef ptr @tma_get_length_malloc(ptr noundef readonly captures(none) %0, i64 noundef %1) #4 {
  %3 = getelementptr inbounds nuw i8, ptr %0, i64 8
  %4 = load ptr, ptr %3, align 8, !tbaa !13
  %5 = add i64 %1, 7
  %6 = and i64 %5, -8
  %7 = load i64, ptr %4, align 8, !tbaa !3
  %8 = add i64 %7, %6
  store i64 %8, ptr %4, align 8, !tbaa !3
  %9 = tail call noalias ptr @malloc(i64 noundef %1) #15
  ret ptr %9
}